; ModuleID = '20/752.c'
source_filename = "20/752.c"
target datalayout = "e-m:e-p270:32:32-p271:32:32-p272:64:64-i64:64-f80:128-n8:16:32:64-S128"
target triple = "x86_64-pc-linux-gnu"

@.str = private unnamed_addr constant [5 x i8] c"%s%s\00", align 1
@.str.1 = private unnamed_addr constant [3 x i8] c"%c\00", align 1
@.str.2 = private unnamed_addr constant [3 x i8] c"%s\00", align 1
@.str.3 = private unnamed_addr constant [2 x i8] c"\0A\00", align 1

; Function Attrs: noinline nounwind uwtable
define dso_local i32 @main() #0 {
  %1 = alloca i32, align 4
  %2 = alloca [100 x [11 x i8]], align 16
  %3 = alloca [100 x [4 x i8]], align 16
  %4 = alloca i32, align 4
  %5 = alloca i32, align 4
  %6 = alloca i32, align 4
  %7 = alloca i32, align 4
  %8 = alloca i32, align 4
  store i32 0, i32* %1, align 4
  %9 = getelementptr inbounds [100 x [11 x i8]], [100 x [11 x i8]]* %2, i64 0, i64 0
  %10 = getelementptr inbounds [11 x i8], [11 x i8]* %9, i64 0, i64 0
  %11 = getelementptr inbounds [100 x [4 x i8]], [100 x [4 x i8]]* %3, i64 0, i64 0
  %12 = getelementptr inbounds [4 x i8], [4 x i8]* %11, i64 0, i64 0
  %13 = call i32 (i8*, ...) @__isoc99_scanf(i8* getelementptr inbounds ([5 x i8], [5 x i8]* @.str, i64 0, i64 0), i8* %10, i8* %12)
  store i32 0, i32* %6, align 4
  store i32 0, i32* %8, align 4
  br label %14

14:                                               ; preds = %100, %0
  store i32 0, i32* %6, align 4
  store i32 0, i32* %7, align 4
  br label %15

15:                                               ; preds = %45, %14
  %16 = load i32, i32* %7, align 4
  %17 = sext i32 %16 to i64
  %18 = load i32, i32* %8, align 4
  %19 = sext i32 %18 to i64
  %20 = getelementptr inbounds [100 x [11 x i8]], [100 x [11 x i8]]* %2, i64 0, i64 %19
  %21 = getelementptr inbounds [11 x i8], [11 x i8]* %20, i64 0, i64 0
  %22 = call i64 @strlen(i8* %21) #3
  %23 = icmp ult i64 %17, %22
  br i1 %23, label %24, label %48

24:                                               ; preds = %15
  %25 = load i32, i32* %8, align 4
  %26 = sext i32 %25 to i64
  %27 = getelementptr inbounds [100 x [11 x i8]], [100 x [11 x i8]]* %2, i64 0, i64 %26
  %28 = load i32, i32* %7, align 4
  %29 = sext i32 %28 to i64
  %30 = getelementptr inbounds [11 x i8], [11 x i8]* %27, i64 0, i64 %29
  %31 = load i8, i8* %30, align 1
  %32 = sext i8 %31 to i32
  %33 = load i32, i32* %8, align 4
  %34 = sext i32 %33 to i64
  %35 = getelementptr inbounds [100 x [11 x i8]], [100 x [11 x i8]]* %2, i64 0, i64 %34
  %36 = load i32, i32* %6, align 4
  %37 = sext i32 %36 to i64
  %38 = getelementptr inbounds [11 x i8], [11 x i8]* %35, i64 0, i64 %37
  %39 = load i8, i8* %38, align 1
  %40 = sext i8 %39 to i32
  %41 = icmp sgt i32 %32, %40
  br i1 %41, label %42, label %44

42:                                               ; preds = %24
  %43 = load i32, i32* %7, align 4
  store i32 %43, i32* %6, align 4
  br label %44

44:                                               ; preds = %42, %24
  br label %45

45:                                               ; preds = %44
  %46 = load i32, i32* %7, align 4
  %47 = add nsw i32 %46, 1
  store i32 %47, i32* %7, align 4
  br label %15

48:                                               ; preds = %15
  store i32 0, i32* %4, align 4
  br label %49

49:                                               ; preds = %63, %48
  %50 = load i32, i32* %4, align 4
  %51 = load i32, i32* %6, align 4
  %52 = icmp sle i32 %50, %51
  br i1 %52, label %53, label %66

53:                                               ; preds = %49
  %54 = load i32, i32* %8, align 4
  %55 = sext i32 %54 to i64
  %56 = getelementptr inbounds [100 x [11 x i8]], [100 x [11 x i8]]* %2, i64 0, i64 %55
  %57 = load i32, i32* %4, align 4
  %58 = sext i32 %57 to i64
  %59 = getelementptr inbounds [11 x i8], [11 x i8]* %56, i64 0, i64 %58
  %60 = load i8, i8* %59, align 1
  %61 = sext i8 %60 to i32
  %62 = call i32 (i8*, ...) @printf(i8* getelementptr inbounds ([3 x i8], [3 x i8]* @.str.1, i64 0, i64 0), i32 %61)
  br label %63

63:                                               ; preds = %53
  %64 = load i32, i32* %4, align 4
  %65 = add nsw i32 %64, 1
  store i32 %65, i32* %4, align 4
  br label %49

66:                                               ; preds = %49
  %67 = load i32, i32* %8, align 4
  %68 = sext i32 %67 to i64
  %69 = getelementptr inbounds [100 x [4 x i8]], [100 x [4 x i8]]* %3, i64 0, i64 %68
  %70 = getelementptr inbounds [4 x i8], [4 x i8]* %69, i64 0, i64 0
  %71 = call i32 (i8*, ...) @printf(i8* getelementptr inbounds ([3 x i8], [3 x i8]* @.str.2, i64 0, i64 0), i8* %70)
  %72 = load i32, i32* %6, align 4
  %73 = add nsw i32 %72, 1
  store i32 %73, i32* %5, align 4
  br label %74

74:                                               ; preds = %93, %66
  %75 = load i32, i32* %5, align 4
  %76 = sext i32 %75 to i64
  %77 = load i32, i32* %8, align 4
  %78 = sext i32 %77 to i64
  %79 = getelementptr inbounds [100 x [11 x i8]], [100 x [11 x i8]]* %2, i64 0, i64 %78
  %80 = getelementptr inbounds [11 x i8], [11 x i8]* %79, i64 0, i64 0
  %81 = call i64 @strlen(i8* %80) #3
  %82 = icmp ult i64 %76, %81
  br i1 %82, label %83, label %96

83:                                               ; preds = %74
  %84 = load i32, i32* %8, align 4
  %85 = sext i32 %84 to i64
  %86 = getelementptr inbounds [100 x [11 x i8]], [100 x [11 x i8]]* %2, i64 0, i64 %85
  %87 = load i32, i32* %5, align 4
  %88 = sext i32 %87 to i64
  %89 = getelementptr inbounds [11 x i8], [11 x i8]* %86, i64 0, i64 %88
  %90 = load i8, i8* %89, align 1
  %91 = sext i8 %90 to i32
  %92 = call i32 (i8*, ...) @printf(i8* getelementptr inbounds ([3 x i8], [3 x i8]* @.str.1, i64 0, i64 0), i32 %91)
  br label %93

93:                                               ; preds = %83
  %94 = load i32, i32* %5, align 4
  %95 = add nsw i32 %94, 1
  store i32 %95, i32* %5, align 4
  br label %74

96:                                               ; preds = %74
  %97 = call i32 (i8*, ...) @printf(i8* getelementptr inbounds ([2 x i8], [2 x i8]* @.str.3, i64 0, i64 0))
  %98 = load i32, i32* %8, align 4
  %99 = add nsw i32 %98, 1
  store i32 %99, i32* %8, align 4
  br label %100

100:                                              ; preds = %96
  %101 = load i32, i32* %8, align 4
  %102 = sext i32 %101 to i64
  %103 = getelementptr inbounds [100 x [11 x i8]], [100 x [11 x i8]]* %2, i64 0, i64 %102
  %104 = getelementptr inbounds [11 x i8], [11 x i8]* %103, i64 0, i64 0
  %105 = load i32, i32* %8, align 4
  %106 = sext i32 %105 to i64
  %107 = getelementptr inbounds [100 x [4 x i8]], [100 x [4 x i8]]* %3, i64 0, i64 %106
  %108 = getelementptr inbounds [4 x i8], [4 x i8]* %107, i64 0, i64 0
  %109 = call i32 (i8*, ...) @__isoc99_scanf(i8* getelementptr inbounds ([5 x i8], [5 x i8]* @.str, i64 0, i64 0), i8* %104, i8* %108)
  %110 = icmp ne i32 %109, -1
  br i1 %110, label %14, label %111

111:                                              ; preds = %100
  %112 = load i32, i32* %1, align 4
  ret i32 %112
}

declare dso_local i32 @__isoc99_scanf(i8*, ...) #1

; Function Attrs: nounwind readonly
declare dso_local i64 @strlen(i8*) #2

declare dso_local i32 @printf(i8*, ...) #1


!llvm.module.flags = !{!0}
!llvm.ident = !{!1}

!0 = !{i32 1, !"wchar_size", i32 4}
!1 = !{!"clang version 10.0.0-4ubuntu1 "}
